; ModuleID = '57/200.c'
source_filename = "57/200.c"
target datalayout = "e-m:e-p270:32:32-p271:32:32-p272:64:64-i64:64-f80:128-n8:16:32:64-S128"
target triple = "x86_64-pc-linux-gnu"

%struct.string = type { [20 x i8], i32 }

@.str = private unnamed_addr constant [3 x i8] c"%d\00", align 1
@.str.1 = private unnamed_addr constant [3 x i8] c"%s\00", align 1
@.str.2 = private unnamed_addr constant [4 x i8] c"%s\0A\00", align 1

; Function Attrs: noinline nounwind uwtable
define dso_local void @main() #0 {
  %1 = alloca i32, align 4
  %2 = alloca i32, align 4
  %3 = alloca i32, align 4
  %4 = alloca i32, align 4
  %5 = alloca [50 x %struct.string], align 16
  %6 = call i32 (i8*, ...) @__isoc99_scanf(i8* getelementptr inbounds ([3 x i8], [3 x i8]* @.str, i64 0, i64 0), i32* %2)
  store i32 0, i32* %1, align 4
  br label %7

7:                                                ; preds = %29, %0
  %8 = load i32, i32* %1, align 4
  %9 = load i32, i32* %2, align 4
  %10 = icmp slt i32 %8, %9
  br i1 %10, label %11, label %32

11:                                               ; preds = %7
  %12 = load i32, i32* %1, align 4
  %13 = sext i32 %12 to i64
  %14 = getelementptr inbounds [50 x %struct.string], [50 x %struct.string]* %5, i64 0, i64 %13
  %15 = getelementptr inbounds %struct.string, %struct.string* %14, i32 0, i32 0
  %16 = getelementptr inbounds [20 x i8], [20 x i8]* %15, i64 0, i64 0
  %17 = call i32 (i8*, ...) @__isoc99_scanf(i8* getelementptr inbounds ([3 x i8], [3 x i8]* @.str.1, i64 0, i64 0), i8* %16)
  %18 = load i32, i32* %1, align 4
  %19 = sext i32 %18 to i64
  %20 = getelementptr inbounds [50 x %struct.string], [50 x %struct.string]* %5, i64 0, i64 %19
  %21 = getelementptr inbounds %struct.string, %struct.string* %20, i32 0, i32 0
  %22 = getelementptr inbounds [20 x i8], [20 x i8]* %21, i64 0, i64 0
  %23 = call i64 @strlen(i8* %22) #3
  %24 = trunc i64 %23 to i32
  %25 = load i32, i32* %1, align 4
  %26 = sext i32 %25 to i64
  %27 = getelementptr inbounds [50 x %struct.string], [50 x %struct.string]* %5, i64 0, i64 %26
  %28 = getelementptr inbounds %struct.string, %struct.string* %27, i32 0, i32 1
  store i32 %24, i32* %28, align 4
  br label %29

29:                                               ; preds = %11
  %30 = load i32, i32* %1, align 4
  %31 = add nsw i32 %30, 1
  store i32 %31, i32* %1, align 4
  br label %7

32:                                               ; preds = %7
  store i32 0, i32* %1, align 4
  br label %33

33:                                               ; preds = %181, %32
  %34 = load i32, i32* %1, align 4
  %35 = load i32, i32* %2, align 4
  %36 = icmp slt i32 %34, %35
  br i1 %36, label %37, label %184

37:                                               ; preds = %33
  %38 = load i32, i32* %1, align 4
  %39 = sext i32 %38 to i64
  %40 = getelementptr inbounds [50 x %struct.string], [50 x %struct.string]* %5, i64 0, i64 %39
  %41 = getelementptr inbounds %struct.string, %struct.string* %40, i32 0, i32 1
  %42 = load i32, i32* %41, align 4
  %43 = sub nsw i32 %42, 1
  store i32 %43, i32* %3, align 4
  %44 = load i32, i32* %1, align 4
  %45 = sext i32 %44 to i64
  %46 = getelementptr inbounds [50 x %struct.string], [50 x %struct.string]* %5, i64 0, i64 %45
  %47 = getelementptr inbounds %struct.string, %struct.string* %46, i32 0, i32 0
  %48 = load i32, i32* %3, align 4
  %49 = sext i32 %48 to i64
  %50 = getelementptr inbounds [20 x i8], [20 x i8]* %47, i64 0, i64 %49
  %51 = load i8, i8* %50, align 1
  %52 = sext i8 %51 to i32
  %53 = icmp eq i32 %52, 114
  br i1 %53, label %54, label %82

54:                                               ; preds = %37
  %55 = load i32, i32* %1, align 4
  %56 = sext i32 %55 to i64
  %57 = getelementptr inbounds [50 x %struct.string], [50 x %struct.string]* %5, i64 0, i64 %56
  %58 = getelementptr inbounds %struct.string, %struct.string* %57, i32 0, i32 0
  %59 = load i32, i32* %3, align 4
  %60 = sub nsw i32 %59, 1
  %61 = sext i32 %60 to i64
  %62 = getelementptr inbounds [20 x i8], [20 x i8]* %58, i64 0, i64 %61
  %63 = load i8, i8* %62, align 1
  %64 = sext i8 %63 to i32
  %65 = icmp eq i32 %64, 101
  br i1 %65, label %66, label %82

66:                                               ; preds = %54
  %67 = load i32, i32* %1, align 4
  %68 = sext i32 %67 to i64
  %69 = getelementptr inbounds [50 x %struct.string], [50 x %struct.string]* %5, i64 0, i64 %68
  %70 = getelementptr inbounds %struct.string, %struct.string* %69, i32 0, i32 0
  %71 = load i32, i32* %3, align 4
  %72 = sext i32 %71 to i64
  %73 = getelementptr inbounds [20 x i8], [20 x i8]* %70, i64 0, i64 %72
  store i8 0, i8* %73, align 1
  %74 = load i32, i32* %1, align 4
  %75 = sext i32 %74 to i64
  %76 = getelementptr inbounds [50 x %struct.string], [50 x %struct.string]* %5, i64 0, i64 %75
  %77 = getelementptr inbounds %struct.string, %struct.string* %76, i32 0, i32 0
  %78 = load i32, i32* %3, align 4
  %79 = sub nsw i32 %78, 1
  %80 = sext i32 %79 to i64
  %81 = getelementptr inbounds [20 x i8], [20 x i8]* %77, i64 0, i64 %80
  store i8 0, i8* %81, align 1
  br label %82

82:                                               ; preds = %66, %54, %37
  %83 = load i32, i32* %1, align 4
  %84 = sext i32 %83 to i64
  %85 = getelementptr inbounds [50 x %struct.string], [50 x %struct.string]* %5, i64 0, i64 %84
  %86 = getelementptr inbounds %struct.string, %struct.string* %85, i32 0, i32 0
  %87 = load i32, i32* %3, align 4
  %88 = sext i32 %87 to i64
  %89 = getelementptr inbounds [20 x i8], [20 x i8]* %86, i64 0, i64 %88
  %90 = load i8, i8* %89, align 1
  %91 = sext i8 %90 to i32
  %92 = icmp eq i32 %91, 121
  br i1 %92, label %93, label %121

93:                                               ; preds = %82
  %94 = load i32, i32* %1, align 4
  %95 = sext i32 %94 to i64
  %96 = getelementptr inbounds [50 x %struct.string], [50 x %struct.string]* %5, i64 0, i64 %95
  %97 = getelementptr inbounds %struct.string, %struct.string* %96, i32 0, i32 0
  %98 = load i32, i32* %3, align 4
  %99 = sub nsw i32 %98, 1
  %100 = sext i32 %99 to i64
  %101 = getelementptr inbounds [20 x i8], [20 x i8]* %97, i64 0, i64 %100
  %102 = load i8, i8* %101, align 1
  %103 = sext i8 %102 to i32
  %104 = icmp eq i32 %103, 108
  br i1 %104, label %105, label %121

105:                                              ; preds = %93
  %106 = load i32, i32* %1, align 4
  %107 = sext i32 %106 to i64
  %108 = getelementptr inbounds [50 x %struct.string], [50 x %struct.string]* %5, i64 0, i64 %107
  %109 = getelementptr inbounds %struct.string, %struct.string* %108, i32 0, i32 0
  %110 = load i32, i32* %3, align 4
  %111 = sext i32 %110 to i64
  %112 = getelementptr inbounds [20 x i8], [20 x i8]* %109, i64 0, i64 %111
  store i8 0, i8* %112, align 1
  %113 = load i32, i32* %1, align 4
  %114 = sext i32 %113 to i64
  %115 = getelementptr inbounds [50 x %struct.string], [50 x %struct.string]* %5, i64 0, i64 %114
  %116 = getelementptr inbounds %struct.string, %struct.string* %115, i32 0, i32 0
  %117 = load i32, i32* %3, align 4
  %118 = sub nsw i32 %117, 1
  %119 = sext i32 %118 to i64
  %120 = getelementptr inbounds [20 x i8], [20 x i8]* %116, i64 0, i64 %119
  store i8 0, i8* %120, align 1
  br label %121

121:                                              ; preds = %105, %93, %82
  %122 = load i32, i32* %1, align 4
  %123 = sext i32 %122 to i64
  %124 = getelementptr inbounds [50 x %struct.string], [50 x %struct.string]* %5, i64 0, i64 %123
  %125 = getelementptr inbounds %struct.string, %struct.string* %124, i32 0, i32 0
  %126 = load i32, i32* %3, align 4
  %127 = sext i32 %126 to i64
  %128 = getelementptr inbounds [20 x i8], [20 x i8]* %125, i64 0, i64 %127
  %129 = load i8, i8* %128, align 1
  %130 = sext i8 %129 to i32
  %131 = icmp eq i32 %130, 103
  br i1 %131, label %132, label %180

132:                                              ; preds = %121
  %133 = load i32, i32* %1, align 4
  %134 = sext i32 %133 to i64
  %135 = getelementptr inbounds [50 x %struct.string], [50 x %struct.string]* %5, i64 0, i64 %134
  %136 = getelementptr inbounds %struct.string, %struct.string* %135, i32 0, i32 0
  %137 = load i32, i32* %3, align 4
  %138 = sub nsw i32 %137, 1
  %139 = sext i32 %138 to i64
  %140 = getelementptr inbounds [20 x i8], [20 x i8]* %136, i64 0, i64 %139
  %141 = load i8, i8* %140, align 1
  %142 = sext i8 %141 to i32
  %143 = icmp eq i32 %142, 110
  br i1 %143, label %144, label %180

144:                                              ; preds = %132
  %145 = load i32, i32* %1, align 4
  %146 = sext i32 %145 to i64
  %147 = getelementptr inbounds [50 x %struct.string], [50 x %struct.string]* %5, i64 0, i64 %146
  %148 = getelementptr inbounds %struct.string, %struct.string* %147, i32 0, i32 0
  %149 = load i32, i32* %3, align 4
  %150 = sub nsw i32 %149, 2
  %151 = sext i32 %150 to i64
  %152 = getelementptr inbounds [20 x i8], [20 x i8]* %148, i64 0, i64 %151
  %153 = load i8, i8* %152, align 1
  %154 = sext i8 %153 to i32
  %155 = icmp eq i32 %154, 105
  br i1 %155, label %156, label %180

156:                                              ; preds = %144
  %157 = load i32, i32* %1, align 4
  %158 = sext i32 %157 to i64
  %159 = getelementptr inbounds [50 x %struct.string], [50 x %struct.string]* %5, i64 0, i64 %158
  %160 = getelementptr inbounds %struct.string, %struct.string* %159, i32 0, i32 0
  %161 = load i32, i32* %3, align 4
  %162 = sext i32 %161 to i64
  %163 = getelementptr inbounds [20 x i8], [20 x i8]* %160, i64 0, i64 %162
  store i8 0, i8* %163, align 1
  %164 = load i32, i32* %1, align 4
  %165 = sext i32 %164 to i64
  %166 = getelementptr inbounds [50 x %struct.string], [50 x %struct.string]* %5, i64 0, i64 %165
  %167 = getelementptr inbounds %struct.string, %struct.string* %166, i32 0, i32 0
  %168 = load i32, i32* %3, align 4
  %169 = sub nsw i32 %168, 1
  %170 = sext i32 %169 to i64
  %171 = getelementptr inbounds [20 x i8], [20 x i8]* %167, i64 0, i64 %170
  store i8 0, i8* %171, align 1
  %172 = load i32, i32* %1, align 4
  %173 = sext i32 %172 to i64
  %174 = getelementptr inbounds [50 x %struct.string], [50 x %struct.string]* %5, i64 0, i64 %173
  %175 = getelementptr inbounds %struct.string, %struct.string* %174, i32 0, i32 0
  %176 = load i32, i32* %3, align 4
  %177 = sub nsw i32 %176, 2
  %178 = sext i32 %177 to i64
  %179 = getelementptr inbounds [20 x i8], [20 x i8]* %175, i64 0, i64 %178
  store i8 0, i8* %179, align 1
  br label %180

180:                                              ; preds = %156, %144, %132, %121
  br label %181

181:                                              ; preds = %180
  %182 = load i32, i32* %1, align 4
  %183 = add nsw i32 %182, 1
  store i32 %183, i32* %1, align 4
  br label %33

184:                                              ; preds = %33
  store i32 0, i32* %1, align 4
  br label %185

185:                                              ; preds = %196, %184
  %186 = load i32, i32* %1, align 4
  %187 = load i32, i32* %2, align 4
  %188 = icmp slt i32 %186, %187
  br i1 %188, label %189, label %199

189:                                              ; preds = %185
  %190 = load i32, i32* %1, align 4
  %191 = sext i32 %190 to i64
  %192 = getelementptr inbounds [50 x %struct.string], [50 x %struct.string]* %5, i64 0, i64 %191
  %193 = getelementptr inbounds %struct.string, %struct.string* %192, i32 0, i32 0
  %194 = getelementptr inbounds [20 x i8], [20 x i8]* %193, i64 0, i64 0
  %195 = call i32 (i8*, ...) @printf(i8* getelementptr inbounds ([4 x i8], [4 x i8]* @.str.2, i64 0, i64 0), i8* %194)
  br label %196

196:                                              ; preds = %189
  %197 = load i32, i32* %1, align 4
  %198 = add nsw i32 %197, 1
  store i32 %198, i32* %1, align 4
  br label %185

199:                                              ; preds = %185
  ret void
}

declare dso_local i32 @__isoc99_scanf(i8*, ...) #1

; Function Attrs: nounwind readonly
declare dso_local i64 @strlen(i8*) #2

declare dso_local i32 @printf(i8*, ...) #1


!llvm.module.flags = !{!0}
!llvm.ident = !{!1}

!0 = !{i32 1, !"wchar_size", i32 4}
!1 = !{!"clang version 10.0.0-4ubuntu1 "}
